; Function Attrs: nofree norecurse nosync nounwind memory(readwrite, inaccessiblemem: none) uwtable
define void @TLSX_SetResponse(ptr noundef readonly captures(none) %0, i32 noundef %1) local_unnamed_addr #9 {
  %3 = getelementptr inbounds nuw i8, ptr %0, i64 1224
  %4 = load ptr, ptr %3, align 8, !tbaa !100
  %.not6.i = icmp eq ptr %4, null
  br i1 %.not6.i, label %TLSX_Find.exit.thread, label %.lr.ph.i

.lr.ph.i:                                         ; preds = %2, %6
  %.07.i = phi ptr [ %8, %6 ], [ %4, %2 ]
  %5 = load i32, ptr %.07.i, align 8, !tbaa !60
  %.not5.i = icmp eq i32 %5, %1
  br i1 %.not5.i, label %TLSX_Find.exit, label %6

6:                                                ; preds = %.lr.ph.i
  %7 = getelementptr inbounds nuw i8, ptr %.07.i, i64 24
  %8 = load ptr, ptr %7, align 8, !tbaa !63
  %.not.i = icmp eq ptr %8, null
  br i1 %.not.i, label %TLSX_Find.exit.thread, label %.lr.ph.i, !llvm.loop !101

TLSX_Find.exit:                                   ; preds = %.lr.ph.i
  %9 = getelementptr inbounds nuw i8, ptr %.07.i, i64 20
  store i8 1, ptr %9, align 4, !tbaa !83
  br label %TLSX_Find.exit.thread

TLSX_Find.exit.thread:                            ; preds = %6, %2, %TLSX_Find.exit
  ret void
}